; Function Attrs: nounwind uwtable
define internal void @fullscreen_deadline_handler(ptr noundef %0, ptr noundef %1, i32 %2) #0 {
  %4 = ptrtoint ptr %0 to i64
  %5 = trunc i64 %4 to i32
  %6 = tail call ptr @SDL_GetWindowFromID_REAL(i32 noundef %5) #15
  %.not = icmp eq ptr %6, null
  br i1 %.not, label %14, label %7

7:                                                ; preds = %3
  %8 = getelementptr inbounds nuw i8, ptr %6, i64 392
  %9 = load ptr, ptr %8, align 8
  %.not6 = icmp eq ptr %9, null
  br i1 %.not6, label %14, label %10

10:                                               ; preds = %7
  %11 = getelementptr inbounds nuw i8, ptr %9, i64 368
  %12 = load i32, ptr %11, align 8
  %13 = add nsw i32 %12, -1
  store i32 %13, ptr %11, align 8
  br label %14

14:                                               ; preds = %10, %7, %3
  %15 = load ptr, ptr @WAYLAND_wl_proxy_destroy, align 8
  tail call void %15(ptr noundef %1) #15
  ret void
}